; Function Attrs: mustprogress uwtable
define internal noundef i64 @_ZN7rocksdb12_GLOBAL__N_112SimCacheImpl5NewIdEv(ptr noundef nonnull readonly align 8 captures(none) dereferenceable(216) %0) unnamed_addr #4 align 2 {
  %2 = getelementptr inbounds nuw i8, ptr %0, i64 80
  %3 = load ptr, ptr %2, align 8, !tbaa !45
  %4 = load ptr, ptr %3, align 8, !tbaa !32
  %5 = getelementptr inbounds nuw i8, ptr %4, i64 208
  %6 = load ptr, ptr %5, align 8
  %7 = tail call noundef i64 %6(ptr noundef nonnull align 8 dereferenceable(80) %3)
  ret i64 %7
}